target datalayout = "e-m:e-p270:32:32-p271:32:32-p272:64:64-i64:64-i128:128-f80:128-n8:16:32:64-S128"
target triple = "x86_64-unknown-linux-gnu"

%"class.icu_75::UObject" = type { ptr }
%"class.icu_75::UnicodeString" = type { %"class.icu_75::Replaceable", %"union.icu_75::UnicodeString::StackBufferOrFields" }
%"class.icu_75::Replaceable" = type { %"class.icu_75::UObject" }
%"union.icu_75::UnicodeString::StackBufferOrFields" = type { %struct.anon.0, [32 x i8] }
%struct.anon.0 = type { i16, i32, i32, ptr }
%struct.anon = type { i16, [27 x i16] }
%"class.icu_75::(anonymous namespace)::MaxExpSink" = type { %"class.icu_75::ContractionsAndExpansions::CESink", ptr, ptr }
%"class.icu_75::ContractionsAndExpansions::CESink" = type { ptr }
%"class.icu_75::ContractionsAndExpansions" = type <{ ptr, ptr, ptr, ptr, i8, i8, [6 x i8], %"class.icu_75::UnicodeSet", %"class.icu_75::UnicodeSet", %"class.icu_75::UnicodeString", ptr, [31 x i64], i32, [4 x i8] }>
%"class.icu_75::UnicodeSet" = type <{ %"class.icu_75::UnicodeFilter", ptr, i32, i32, i8, [7 x i8], ptr, ptr, i32, [4 x i8], ptr, i32, [4 x i8], ptr, ptr, [25 x i32], [4 x i8] }>
%"class.icu_75::UnicodeFilter" = type { %"class.icu_75::UnicodeFunctor", %"class.icu_75::UnicodeMatcher" }
%"class.icu_75::UnicodeFunctor" = type { %"class.icu_75::UObject" }
%"class.icu_75::UnicodeMatcher" = type { ptr }

@_ZTVN6icu_757UObjectE = external unnamed_addr constant { [5 x ptr] }, align 8
@_ZTVN6icu_7513UnicodeStringE = external unnamed_addr constant { [13 x ptr] }, align 8
@_ZTVN6icu_7511ReplaceableE = external unnamed_addr constant { [13 x ptr] }, align 8
@_ZTVN6icu_7525ContractionsAndExpansions6CESinkE = external unnamed_addr constant { [6 x ptr] }, align 8

; Function Attrs: mustprogress nounwind uwtable
define linkonce_odr void @_ZN6icu_757UObjectC2Ev(ptr noundef nonnull align 8 dereferenceable(8) %this) unnamed_addr #0 comdat align 2 {
entry:
  %this.addr = alloca ptr, align 8
  store ptr %this, ptr %this.addr, align 8
  %this1 = load ptr, ptr %this.addr, align 8
  store ptr getelementptr inbounds ({ [5 x ptr] }, ptr @_ZTVN6icu_757UObjectE, i32 0, i32 0, i32 2), ptr %this1, align 8
  ret void
}

; Function Attrs: mustprogress nounwind uwtable
define linkonce_odr void @_ZN6icu_7511ReplaceableC2Ev(ptr noundef nonnull align 8 dereferenceable(8) %this) unnamed_addr #0 comdat align 2 {
entry:
  %this.addr = alloca ptr, align 8
  store ptr %this, ptr %this.addr, align 8
  %this1 = load ptr, ptr %this.addr, align 8
  call void @_ZN6icu_757UObjectC2Ev(ptr noundef nonnull align 8 dereferenceable(8) %this1) #5
  store ptr getelementptr inbounds ({ [13 x ptr] }, ptr @_ZTVN6icu_7511ReplaceableE, i32 0, i32 0, i32 2), ptr %this1, align 8
  ret void
}

; Function Attrs: mustprogress uwtable
define linkonce_odr void @_ZN6icu_7513UnicodeStringC2Ev(ptr noundef nonnull align 8 dereferenceable(64) %this) unnamed_addr #1 comdat align 2 {
entry:
  %this.addr = alloca ptr, align 8
  store ptr %this, ptr %this.addr, align 8
  %this1 = load ptr, ptr %this.addr, align 8
  call void @_ZN6icu_7511ReplaceableC2Ev(ptr noundef nonnull align 8 dereferenceable(8) %this1)
  store ptr getelementptr inbounds ({ [13 x ptr] }, ptr @_ZTVN6icu_7513UnicodeStringE, i32 0, i32 0, i32 2), ptr %this1, align 8
  %fUnion2 = getelementptr inbounds %"class.icu_75::UnicodeString", ptr %this1, i32 0, i32 1
  %fLengthAndFlags = getelementptr inbounds %struct.anon, ptr %fUnion2, i32 0, i32 0
  store i16 2, ptr %fLengthAndFlags, align 8
  ret void
}

; Function Attrs: mustprogress nounwind uwtable
define linkonce_odr void @_ZN6icu_7525ContractionsAndExpansions6CESinkC2Ev(ptr noundef nonnull align 8 dereferenceable(8) %this) unnamed_addr #0 comdat align 2 {
entry:
  %this.addr = alloca ptr, align 8
  store ptr %this, ptr %this.addr, align 8
  %this1 = load ptr, ptr %this.addr, align 8
  store ptr getelementptr inbounds ({ [6 x ptr] }, ptr @_ZTVN6icu_7525ContractionsAndExpansions6CESinkE, i32 0, i32 0, i32 2), ptr %this1, align 8
  ret void
}

; Function Attrs: mustprogress nounwind uwtable
define internal void @_ZN6icu_7512_GLOBAL__N_110MaxExpSinkD2Ev(ptr noundef nonnull align 8 dereferenceable(24) %this) unnamed_addr #0 align 2 {
entry:
  %this.addr = alloca ptr, align 8
  store ptr %this, ptr %this.addr, align 8
  %this1 = load ptr, ptr %this.addr, align 8
  call void @_ZN6icu_7525ContractionsAndExpansions6CESinkD2Ev(ptr noundef nonnull align 8 dereferenceable(8) %this1) #5
  ret void
}

; Function Attrs: mustprogress uwtable
define linkonce_odr void @_ZN6icu_7525ContractionsAndExpansionsC2EPNS_10UnicodeSetES2_PNS0_6CESinkEa(ptr noundef nonnull align 8 dereferenceable(764) %this, ptr noundef %con, ptr noundef %exp, ptr noundef %s, i8 noundef signext %prefixes) unnamed_addr #1 comdat align 2 personality ptr @__gxx_personality_v0 {
entry:
  %this.addr = alloca ptr, align 8
  %con.addr = alloca ptr, align 8
  %exp.addr = alloca ptr, align 8
  %s.addr = alloca ptr, align 8
  %prefixes.addr = alloca i8, align 1
  %exn.slot = alloca ptr, align 8
  %ehselector.slot = alloca i32, align 4
  store ptr %this, ptr %this.addr, align 8
  store ptr %con, ptr %con.addr, align 8
  store ptr %exp, ptr %exp.addr, align 8
  store ptr %s, ptr %s.addr, align 8
  store i8 %prefixes, ptr %prefixes.addr, align 1
  %this1 = load ptr, ptr %this.addr, align 8
  %data = getelementptr inbounds %"class.icu_75::ContractionsAndExpansions", ptr %this1, i32 0, i32 0
  store ptr null, ptr %data, align 8
  %contractions = getelementptr inbounds %"class.icu_75::ContractionsAndExpansions", ptr %this1, i32 0, i32 1
  %0 = load ptr, ptr %con.addr, align 8
  store ptr %0, ptr %contractions, align 8
  %expansions = getelementptr inbounds %"class.icu_75::ContractionsAndExpansions", ptr %this1, i32 0, i32 2
  %1 = load ptr, ptr %exp.addr, align 8
  store ptr %1, ptr %expansions, align 8
  %sink = getelementptr inbounds %"class.icu_75::ContractionsAndExpansions", ptr %this1, i32 0, i32 3
  %2 = load ptr, ptr %s.addr, align 8
  store ptr %2, ptr %sink, align 8
  %addPrefixes = getelementptr inbounds %"class.icu_75::ContractionsAndExpansions", ptr %this1, i32 0, i32 4
  %3 = load i8, ptr %prefixes.addr, align 1
  store i8 %3, ptr %addPrefixes, align 8
  %checkTailored = getelementptr inbounds %"class.icu_75::ContractionsAndExpansions", ptr %this1, i32 0, i32 5
  store i8 0, ptr %checkTailored, align 1
  %tailored = getelementptr inbounds %"class.icu_75::ContractionsAndExpansions", ptr %this1, i32 0, i32 7
  call void @_ZN6icu_7510UnicodeSetC1Ev(ptr noundef nonnull align 8 dereferenceable(200) %tailored)
  %ranges = getelementptr inbounds %"class.icu_75::ContractionsAndExpansions", ptr %this1, i32 0, i32 8
  invoke void @_ZN6icu_7510UnicodeSetC1Ev(ptr noundef nonnull align 8 dereferenceable(200) %ranges)
          to label %invoke.cont unwind label %lpad

invoke.cont:                                      ; preds = %entry
  %unreversedPrefix = getelementptr inbounds %"class.icu_75::ContractionsAndExpansions", ptr %this1, i32 0, i32 9
  invoke void @_ZN6icu_7513UnicodeStringC2Ev(ptr noundef nonnull align 8 dereferenceable(64) %unreversedPrefix)
          to label %invoke.cont3 unwind label %lpad2

invoke.cont3:                                     ; preds = %invoke.cont
  %suffix = getelementptr inbounds %"class.icu_75::ContractionsAndExpansions", ptr %this1, i32 0, i32 10
  store ptr null, ptr %suffix, align 8
  %errorCode = getelementptr inbounds %"class.icu_75::ContractionsAndExpansions", ptr %this1, i32 0, i32 12
  store i32 0, ptr %errorCode, align 8
  ret void

lpad:                                             ; preds = %entry
  %4 = landingpad { ptr, i32 }
          cleanup
  %5 = extractvalue { ptr, i32 } %4, 0
  store ptr %5, ptr %exn.slot, align 8
  %6 = extractvalue { ptr, i32 } %4, 1
  store i32 %6, ptr %ehselector.slot, align 4
  br label %ehcleanup

lpad2:                                            ; preds = %invoke.cont
  %7 = landingpad { ptr, i32 }
          cleanup
  %8 = extractvalue { ptr, i32 } %7, 0
  store ptr %8, ptr %exn.slot, align 8
  %9 = extractvalue { ptr, i32 } %7, 1
  store i32 %9, ptr %ehselector.slot, align 4
  call void @_ZN6icu_7510UnicodeSetD1Ev(ptr noundef nonnull align 8 dereferenceable(200) %ranges) #5
  br label %ehcleanup

ehcleanup:                                        ; preds = %lpad2, %lpad
  call void @_ZN6icu_7510UnicodeSetD1Ev(ptr noundef nonnull align 8 dereferenceable(200) %tailored) #5
  br label %eh.resume

eh.resume:                                        ; preds = %ehcleanup
  %exn = load ptr, ptr %exn.slot, align 8
  %sel = load i32, ptr %ehselector.slot, align 4
  %lpad.val = insertvalue { ptr, i32 } poison, ptr %exn, 0
  %lpad.val4 = insertvalue { ptr, i32 } %lpad.val, i32 %sel, 1
  resume { ptr, i32 } %lpad.val4
}

; Function Attrs: mustprogress nounwind uwtable
define internal void @_ZN6icu_7512_GLOBAL__N_110MaxExpSinkC2EP10UHashtableR10UErrorCode(ptr noundef nonnull align 8 dereferenceable(24) %this, ptr noundef %h, ptr noundef nonnull align 4 dereferenceable(4) %ec) unnamed_addr #0 align 2 {
entry:
  %this.addr = alloca ptr, align 8
  %h.addr = alloca ptr, align 8
  %ec.addr = alloca ptr, align 8
  store ptr %this, ptr %this.addr, align 8
  store ptr %h, ptr %h.addr, align 8
  store ptr %ec, ptr %ec.addr, align 8
  %this1 = load ptr, ptr %this.addr, align 8
  call void @_ZN6icu_7525ContractionsAndExpansions6CESinkC2Ev(ptr noundef nonnull align 8 dereferenceable(8) %this1) #5
  store ptr getelementptr inbounds ({ [6 x ptr] }, ptr @_ZTVN6icu_7512_GLOBAL__N_110MaxExpSinkE, i32 0, i32 0, i32 2), ptr %this1, align 8
  %maxExpansions = getelementptr inbounds %"class.icu_75::(anonymous namespace)::MaxExpSink", ptr %this1, i32 0, i32 1
  %0 = load ptr, ptr %h.addr, align 8
  store ptr %0, ptr %maxExpansions, align 8
  %errorCode = getelementptr inbounds %"class.icu_75::(anonymous namespace)::MaxExpSink", ptr %this1, i32 0, i32 2
  %1 = load ptr, ptr %ec.addr, align 8
  store ptr %1, ptr %errorCode, align 8
  ret void
}

; Function Attrs: mustprogress nounwind uwtable
define internal noundef signext i8 @_ZL9U_FAILURE10UErrorCode(i32 noundef %code) #0 {
entry:
  %code.addr = alloca i32, align 4
  store i32 %code, ptr %code.addr, align 4
  %0 = load i32, ptr %code.addr, align 4
  %cmp = icmp sgt i32 %0, 0
  %conv = zext i1 %cmp to i8
  ret i8 %conv
}

; Function Attrs: mustprogress uwtable
define noundef ptr @_ZN6icu_7524CollationElementIterator20computeMaxExpansionsEPKNS_13CollationDataER10UErrorCode(ptr noundef %data, ptr noundef nonnull align 4 dereferenceable(4) %errorCode) #1 align 2 personality ptr @__gxx_personality_v0 {
entry:
  %retval = alloca ptr, align 8
  %data.addr = alloca ptr, align 8
  %errorCode.addr = alloca ptr, align 8
  %maxExpansions = alloca ptr, align 8
  %sink = alloca %"class.icu_75::(anonymous namespace)::MaxExpSink", align 8
  %ref.tmp = alloca %"class.icu_75::ContractionsAndExpansions", align 8
  %exn.slot = alloca ptr, align 8
  %ehselector.slot = alloca i32, align 4
  %cleanup.dest.slot = alloca i32, align 4
  store ptr %data, ptr %data.addr, align 8
  store ptr %errorCode, ptr %errorCode.addr, align 8
  %0 = load ptr, ptr %errorCode.addr, align 8
  %1 = load i32, ptr %0, align 4
  %call = call noundef signext i8 @_ZL9U_FAILURE10UErrorCode(i32 noundef %1)
  %tobool = icmp ne i8 %call, 0
  br i1 %tobool, label %if.then, label %if.end

if.then:                                          ; preds = %entry
  store ptr null, ptr %retval, align 8
  br label %return

if.end:                                           ; preds = %entry
  %2 = load ptr, ptr %errorCode.addr, align 8
  %call1 = call ptr @uhash_open_75(ptr noundef @uhash_hashLong_75, ptr noundef @uhash_compareLong_75, ptr noundef @uhash_compareLong_75, ptr noundef %2)
  store ptr %call1, ptr %maxExpansions, align 8
  %3 = load ptr, ptr %errorCode.addr, align 8
  %4 = load i32, ptr %3, align 4
  %call2 = call noundef signext i8 @_ZL9U_FAILURE10UErrorCode(i32 noundef %4)
  %tobool3 = icmp ne i8 %call2, 0
  br i1 %tobool3, label %if.then4, label %if.end5

if.then4:                                         ; preds = %if.end
  store ptr null, ptr %retval, align 8
  br label %return

if.end5:                                          ; preds = %if.end
  %5 = load ptr, ptr %maxExpansions, align 8
  %6 = load ptr, ptr %errorCode.addr, align 8
  call void @_ZN6icu_7512_GLOBAL__N_110MaxExpSinkC2EP10UHashtableR10UErrorCode(ptr noundef nonnull align 8 dereferenceable(24) %sink, ptr noundef %5, ptr noundef nonnull align 4 dereferenceable(4) %6)
  invoke void @_ZN6icu_7525ContractionsAndExpansionsC2EPNS_10UnicodeSetES2_PNS0_6CESinkEa(ptr noundef nonnull align 8 dereferenceable(764) %ref.tmp, ptr noundef null, ptr noundef null, ptr noundef %sink, i8 noundef signext 1)
          to label %invoke.cont unwind label %lpad

invoke.cont:                                      ; preds = %if.end5
  %7 = load ptr, ptr %data.addr, align 8
  %8 = load ptr, ptr %errorCode.addr, align 8
  invoke void @_ZN6icu_7525ContractionsAndExpansions7forDataEPKNS_13CollationDataER10UErrorCode(ptr noundef nonnull align 8 dereferenceable(764) %ref.tmp, ptr noundef %7, ptr noundef nonnull align 4 dereferenceable(4) %8)
          to label %invoke.cont7 unwind label %lpad6

invoke.cont7:                                     ; preds = %invoke.cont
  call void @_ZN6icu_7525ContractionsAndExpansionsD2Ev(ptr noundef nonnull align 8 dereferenceable(764) %ref.tmp) #5
  %9 = load ptr, ptr %errorCode.addr, align 8
  %10 = load i32, ptr %9, align 4
  %call9 = invoke noundef signext i8 @_ZL9U_FAILURE10UErrorCode(i32 noundef %10)
          to label %invoke.cont8 unwind label %lpad

invoke.cont8:                                     ; preds = %invoke.cont7
  %tobool10 = icmp ne i8 %call9, 0
  br i1 %tobool10, label %if.then11, label %if.end13

if.then11:                                        ; preds = %invoke.cont8
  %11 = load ptr, ptr %maxExpansions, align 8
  invoke void @uhash_close_75(ptr noundef %11)
          to label %invoke.cont12 unwind label %lpad

invoke.cont12:                                    ; preds = %if.then11
  store ptr null, ptr %retval, align 8
  store i32 1, ptr %cleanup.dest.slot, align 4
  br label %cleanup

lpad:                                             ; preds = %if.then11, %invoke.cont7, %if.end5
  %12 = landingpad { ptr, i32 }
          cleanup
  %13 = extractvalue { ptr, i32 } %12, 0
  store ptr %13, ptr %exn.slot, align 8
  %14 = extractvalue { ptr, i32 } %12, 1
  store i32 %14, ptr %ehselector.slot, align 4
  br label %ehcleanup

lpad6:                                            ; preds = %invoke.cont
  %15 = landingpad { ptr, i32 }
          cleanup
  %16 = extractvalue { ptr, i32 } %15, 0
  store ptr %16, ptr %exn.slot, align 8
  %17 = extractvalue { ptr, i32 } %15, 1
  store i32 %17, ptr %ehselector.slot, align 4
  call void @_ZN6icu_7525ContractionsAndExpansionsD2Ev(ptr noundef nonnull align 8 dereferenceable(764) %ref.tmp) #5
  br label %ehcleanup

if.end13:                                         ; preds = %invoke.cont8
  %18 = load ptr, ptr %maxExpansions, align 8
  store ptr %18, ptr %retval, align 8
  store i32 1, ptr %cleanup.dest.slot, align 4
  br label %cleanup

cleanup:                                          ; preds = %if.end13, %invoke.cont12
  call void @_ZN6icu_7512_GLOBAL__N_110MaxExpSinkD2Ev(ptr noundef nonnull align 8 dereferenceable(24) %sink) #5
  br label %return

ehcleanup:                                        ; preds = %lpad6, %lpad
  call void @_ZN6icu_7512_GLOBAL__N_110MaxExpSinkD2Ev(ptr noundef nonnull align 8 dereferenceable(24) %sink) #5
  br label %eh.resume

return:                                           ; preds = %cleanup, %if.then4, %if.then
  %19 = load ptr, ptr %retval, align 8
  ret ptr %19

eh.resume:                                        ; preds = %ehcleanup
  %exn = load ptr, ptr %exn.slot, align 8
  %sel = load i32, ptr %ehselector.slot, align 4
  %lpad.val = insertvalue { ptr, i32 } poison, ptr %exn, 0
  %lpad.val14 = insertvalue { ptr, i32 } %lpad.val, i32 %sel, 1
  resume { ptr, i32 } %lpad.val14
}