; Function Attrs: mustprogress uwtable
define noundef ptr @_ZN6icu_7524CollationElementIterator20computeMaxExpansionsEPKNS_13CollationDataER10UErrorCode(ptr noundef %data, ptr noundef nonnull align 4 dereferenceable(4) %errorCode) local_unnamed_addr #1 align 2 personality ptr @__gxx_personality_v0 {
entry:
  %sink = alloca %"class.icu_75::(anonymous namespace)::MaxExpSink", align 8
  %ref.tmp = alloca %"class.icu_75::ContractionsAndExpansions", align 8
  %0 = load i32, ptr %errorCode, align 4
  %cmp.i = icmp slt i32 %0, 1
  br i1 %cmp.i, label %if.end, label %return

if.end:                                           ; preds = %entry
  %call1 = tail call ptr @uhash_open_75(ptr noundef nonnull @uhash_hashLong_75, ptr noundef nonnull @uhash_compareLong_75, ptr noundef nonnull @uhash_compareLong_75, ptr noundef nonnull %errorCode)
  %1 = load i32, ptr %errorCode, align 4
  %cmp.i9 = icmp slt i32 %1, 1
  br i1 %cmp.i9, label %if.end5, label %return

if.end5:                                          ; preds = %if.end
  store ptr getelementptr inbounds ({ [6 x ptr] }, ptr @_ZTVN6icu_7512_GLOBAL__N_110MaxExpSinkE, i64 0, i32 0, i64 2), ptr %sink, align 8
  %maxExpansions.i = getelementptr inbounds i8, ptr %sink, i64 8
  store ptr %call1, ptr %maxExpansions.i, align 8
  %errorCode.i = getelementptr inbounds i8, ptr %sink, i64 16
  store ptr %errorCode, ptr %errorCode.i, align 8
  %sink.i = getelementptr inbounds i8, ptr %ref.tmp, i64 24
  call void @llvm.memset.p0.i64(ptr noundef nonnull align 8 dereferenceable(24) %ref.tmp, i8 0, i64 24, i1 false)
  store ptr %sink, ptr %sink.i, align 8
  %addPrefixes.i = getelementptr inbounds i8, ptr %ref.tmp, i64 32
  store i8 1, ptr %addPrefixes.i, align 8
  %checkTailored.i = getelementptr inbounds i8, ptr %ref.tmp, i64 33
  store i8 0, ptr %checkTailored.i, align 1
  %tailored.i = getelementptr inbounds i8, ptr %ref.tmp, i64 40
  invoke void @_ZN6icu_7510UnicodeSetC1Ev(ptr noundef nonnull align 8 dereferenceable(200) %tailored.i)
          to label %.noexc unwind label %lpad

.noexc:                                           ; preds = %if.end5
  %ranges.i = getelementptr inbounds i8, ptr %ref.tmp, i64 240
  invoke void @_ZN6icu_7510UnicodeSetC1Ev(ptr noundef nonnull align 8 dereferenceable(200) %ranges.i)
          to label %invoke.cont unwind label %lpad.i

lpad.i:                                           ; preds = %.noexc
  %2 = landingpad { ptr, i32 }
          cleanup
  call void @_ZN6icu_7510UnicodeSetD1Ev(ptr noundef nonnull align 8 dereferenceable(200) %tailored.i) #8
  br label %ehcleanup

invoke.cont:                                      ; preds = %.noexc
  %unreversedPrefix.i = getelementptr inbounds i8, ptr %ref.tmp, i64 440
  store ptr getelementptr inbounds ({ [13 x ptr] }, ptr @_ZTVN6icu_7513UnicodeStringE, i64 0, i32 0, i64 2), ptr %unreversedPrefix.i, align 8
  %fUnion2.i.i = getelementptr inbounds i8, ptr %ref.tmp, i64 448
  store i16 2, ptr %fUnion2.i.i, align 8
  %suffix.i = getelementptr inbounds i8, ptr %ref.tmp, i64 504
  store ptr null, ptr %suffix.i, align 8
  %errorCode.i11 = getelementptr inbounds i8, ptr %ref.tmp, i64 760
  store i32 0, ptr %errorCode.i11, align 8
  invoke void @_ZN6icu_7525ContractionsAndExpansions7forDataEPKNS_13CollationDataER10UErrorCode(ptr noundef nonnull align 8 dereferenceable(764) %ref.tmp, ptr noundef %data, ptr noundef nonnull align 4 dereferenceable(4) %errorCode)
          to label %invoke.cont7 unwind label %lpad6

invoke.cont7:                                     ; preds = %invoke.cont
  call void @_ZN6icu_7513UnicodeStringD1Ev(ptr noundef nonnull align 8 dereferenceable(64) %unreversedPrefix.i) #8
  call void @_ZN6icu_7510UnicodeSetD1Ev(ptr noundef nonnull align 8 dereferenceable(200) %ranges.i) #8
  call void @_ZN6icu_7510UnicodeSetD1Ev(ptr noundef nonnull align 8 dereferenceable(200) %tailored.i) #8
  %3 = load i32, ptr %errorCode, align 4
  %cmp.i15 = icmp slt i32 %3, 1
  br i1 %cmp.i15, label %cleanup, label %if.then11

if.then11:                                        ; preds = %invoke.cont7
  invoke void @uhash_close_75(ptr noundef %call1)
          to label %cleanup unwind label %lpad

lpad:                                             ; preds = %if.end5, %if.then11
  %4 = landingpad { ptr, i32 }
          cleanup
  br label %ehcleanup

lpad6:                                            ; preds = %invoke.cont
  %5 = landingpad { ptr, i32 }
          cleanup
  call void @_ZN6icu_7525ContractionsAndExpansionsD2Ev(ptr noundef nonnull align 8 dereferenceable(764) %ref.tmp) #8
  br label %ehcleanup

cleanup:                                          ; preds = %invoke.cont7, %if.then11
  %retval.0 = phi ptr [ null, %if.then11 ], [ %call1, %invoke.cont7 ]
  call void @_ZN6icu_7525ContractionsAndExpansions6CESinkD2Ev(ptr noundef nonnull align 8 dereferenceable(8) %sink) #8
  br label %return

ehcleanup:                                        ; preds = %lpad, %lpad.i, %lpad6
  %.pn = phi { ptr, i32 } [ %5, %lpad6 ], [ %4, %lpad ], [ %2, %lpad.i ]
  call void @_ZN6icu_7525ContractionsAndExpansions6CESinkD2Ev(ptr noundef nonnull align 8 dereferenceable(8) %sink) #8
  resume { ptr, i32 } %.pn

return:                                           ; preds = %if.end, %entry, %cleanup
  %retval.1 = phi ptr [ %retval.0, %cleanup ], [ null, %entry ], [ null, %if.end ]
  ret ptr %retval.1
}